; ModuleID = '56/1242.c'
source_filename = "56/1242.c"
target datalayout = "e-m:e-p270:32:32-p271:32:32-p272:64:64-i64:64-f80:128-n8:16:32:64-S128"
target triple = "x86_64-pc-linux-gnu"

@.str = private unnamed_addr constant [3 x i8] c"%d\00", align 1
@.str.1 = private unnamed_addr constant [11 x i8] c"%d%d%d%d%d\00", align 1
@.str.2 = private unnamed_addr constant [9 x i8] c"%d%d%d%d\00", align 1
@.str.3 = private unnamed_addr constant [7 x i8] c"%d%d%d\00", align 1
@.str.4 = private unnamed_addr constant [5 x i8] c"%d%d\00", align 1

; Function Attrs: noinline nounwind uwtable
define dso_local i32 @main() #0 {
  %1 = alloca i32, align 4
  %2 = alloca i32, align 4
  %3 = alloca i32, align 4
  %4 = alloca i32, align 4
  %5 = alloca i32, align 4
  %6 = alloca i32, align 4
  store i32 0, i32* %1, align 4
  %7 = call i32 (i8*, ...) @__isoc99_scanf(i8* getelementptr inbounds ([3 x i8], [3 x i8]* @.str, i64 0, i64 0), i32* %2)
  %8 = load i32, i32* %2, align 4
  %9 = sdiv i32 %8, 10000
  store i32 %9, i32* %3, align 4
  %10 = load i32, i32* %2, align 4
  %11 = sdiv i32 %10, 1000
  store i32 %11, i32* %4, align 4
  %12 = load i32, i32* %2, align 4
  %13 = sdiv i32 %12, 100
  store i32 %13, i32* %5, align 4
  %14 = load i32, i32* %2, align 4
  %15 = sdiv i32 %14, 10
  store i32 %15, i32* %6, align 4
  %16 = load i32, i32* %3, align 4
  %17 = icmp ne i32 %16, 0
  br i1 %17, label %18, label %29

18:                                               ; preds = %0
  %19 = load i32, i32* %2, align 4
  %20 = srem i32 %19, 10
  %21 = load i32, i32* %6, align 4
  %22 = srem i32 %21, 10
  %23 = load i32, i32* %5, align 4
  %24 = srem i32 %23, 10
  %25 = load i32, i32* %4, align 4
  %26 = srem i32 %25, 10
  %27 = load i32, i32* %3, align 4
  %28 = call i32 (i8*, ...) @printf(i8* getelementptr inbounds ([11 x i8], [11 x i8]* @.str.1, i64 0, i64 0), i32 %20, i32 %22, i32 %24, i32 %26, i32 %27)
  br label %65

29:                                               ; preds = %0
  %30 = load i32, i32* %4, align 4
  %31 = icmp ne i32 %30, 0
  br i1 %31, label %32, label %41

32:                                               ; preds = %29
  %33 = load i32, i32* %2, align 4
  %34 = srem i32 %33, 10
  %35 = load i32, i32* %6, align 4
  %36 = srem i32 %35, 10
  %37 = load i32, i32* %5, align 4
  %38 = srem i32 %37, 10
  %39 = load i32, i32* %4, align 4
  %40 = call i32 (i8*, ...) @printf(i8* getelementptr inbounds ([9 x i8], [9 x i8]* @.str.2, i64 0, i64 0), i32 %34, i32 %36, i32 %38, i32 %39)
  br label %64

41:                                               ; preds = %29
  %42 = load i32, i32* %5, align 4
  %43 = icmp ne i32 %42, 0
  br i1 %43, label %44, label %51

44:                                               ; preds = %41
  %45 = load i32, i32* %2, align 4
  %46 = srem i32 %45, 10
  %47 = load i32, i32* %6, align 4
  %48 = srem i32 %47, 10
  %49 = load i32, i32* %5, align 4
  %50 = call i32 (i8*, ...) @printf(i8* getelementptr inbounds ([7 x i8], [7 x i8]* @.str.3, i64 0, i64 0), i32 %46, i32 %48, i32 %49)
  br label %63

51:                                               ; preds = %41
  %52 = load i32, i32* %6, align 4
  %53 = icmp ne i32 %52, 0
  br i1 %53, label %54, label %59

54:                                               ; preds = %51
  %55 = load i32, i32* %2, align 4
  %56 = srem i32 %55, 10
  %57 = load i32, i32* %6, align 4
  %58 = call i32 (i8*, ...) @printf(i8* getelementptr inbounds ([5 x i8], [5 x i8]* @.str.4, i64 0, i64 0), i32 %56, i32 %57)
  br label %62

59:                                               ; preds = %51
  %60 = load i32, i32* %2, align 4
  %61 = call i32 (i8*, ...) @printf(i8* getelementptr inbounds ([3 x i8], [3 x i8]* @.str, i64 0, i64 0), i32 %60)
  br label %62

62:                                               ; preds = %59, %54
  br label %63

63:                                               ; preds = %62, %44
  br label %64

64:                                               ; preds = %63, %32
  br label %65

65:                                               ; preds = %64, %18
  ret i32 0
}

declare dso_local i32 @__isoc99_scanf(i8*, ...) #1

declare dso_local i32 @printf(i8*, ...) #1


!llvm.module.flags = !{!0}
!llvm.ident = !{!1}

!0 = !{i32 1, !"wchar_size", i32 4}
!1 = !{!"clang version 10.0.0-4ubuntu1 "}
