; ModuleID = 'source-C-CXX/55/1242.c'
source_filename = "source-C-CXX/55/1242.c"
target datalayout = "e-m:e-p270:32:32-p271:32:32-p272:64:64-i64:64-f80:128-n8:16:32:64-S128"
target triple = "x86_64-pc-linux-gnu"

@.str = private unnamed_addr constant [3 x i8] c"%d\00", align 1
@.str.1 = private unnamed_addr constant [11 x i8] c"%d%d%d%d%d\00", align 1
@.str.2 = private unnamed_addr constant [9 x i8] c"%d%d%d%d\00", align 1
@.str.3 = private unnamed_addr constant [7 x i8] c"%d%d%d\00", align 1
@.str.4 = private unnamed_addr constant [5 x i8] c"%d%d\00", align 1

; Function Attrs: nofree nounwind sspstrong uwtable
define dso_local i32 @main() local_unnamed_addr #0 {
  %1 = alloca i32, align 4
  %2 = bitcast i32* %1 to i8*
  call void @llvm.lifetime.start.p0i8(i64 4, i8* nonnull %2) #3
  %3 = call i32 (i8*, ...) @__isoc99_scanf(i8* getelementptr inbounds ([3 x i8], [3 x i8]* @.str, i64 0, i64 0), i32* nonnull %1)
  %4 = load i32, i32* %1, align 4, !tbaa !5
  %5 = sdiv i32 %4, 1000
  %6 = sdiv i32 %4, 100
  %7 = sdiv i32 %4, 10
  %8 = srem i32 %4, 10
  %9 = add i32 %4, 9999
  %10 = icmp ult i32 %9, 19999
  br i1 %10, label %17, label %11

11:                                               ; preds = %0
  %12 = sdiv i32 %4, 10000
  %13 = srem i32 %7, 10
  %14 = srem i32 %6, 10
  %15 = srem i32 %5, 10
  %16 = call i32 (i8*, ...) @printf(i8* nonnull dereferenceable(1) getelementptr inbounds ([11 x i8], [11 x i8]* @.str.1, i64 0, i64 0), i32 %8, i32 %13, i32 %14, i32 %15, i32 %12)
  br label %46

17:                                               ; preds = %0
  %18 = add nsw i32 %4, 999
  %19 = icmp ult i32 %18, 1999
  br i1 %19, label %27, label %20

20:                                               ; preds = %17
  %21 = trunc i32 %4 to i16
  %22 = srem i16 %21, 10
  %23 = sext i16 %22 to i32
  %24 = srem i32 %7, 10
  %25 = srem i32 %6, 10
  %26 = call i32 (i8*, ...) @printf(i8* nonnull dereferenceable(1) getelementptr inbounds ([9 x i8], [9 x i8]* @.str.2, i64 0, i64 0), i32 %23, i32 %24, i32 %25, i32 %5)
  br label %46

27:                                               ; preds = %17
  %28 = add nsw i32 %4, 99
  %29 = icmp ult i32 %28, 199
  br i1 %29, label %36, label %30

30:                                               ; preds = %27
  %31 = trunc i32 %4 to i16
  %32 = srem i16 %31, 10
  %33 = sext i16 %32 to i32
  %34 = srem i32 %7, 10
  %35 = call i32 (i8*, ...) @printf(i8* nonnull dereferenceable(1) getelementptr inbounds ([7 x i8], [7 x i8]* @.str.3, i64 0, i64 0), i32 %33, i32 %34, i32 %6)
  br label %46

36:                                               ; preds = %27
  %37 = add nsw i32 %4, 9
  %38 = icmp ult i32 %37, 19
  br i1 %38, label %44, label %39

39:                                               ; preds = %36
  %40 = trunc i32 %4 to i8
  %41 = srem i8 %40, 10
  %42 = sext i8 %41 to i32
  %43 = call i32 (i8*, ...) @printf(i8* nonnull dereferenceable(1) getelementptr inbounds ([5 x i8], [5 x i8]* @.str.4, i64 0, i64 0), i32 %42, i32 %7)
  br label %46

44:                                               ; preds = %36
  %45 = call i32 (i8*, ...) @printf(i8* nonnull dereferenceable(1) getelementptr inbounds ([3 x i8], [3 x i8]* @.str, i64 0, i64 0), i32 %4)
  br label %46

46:                                               ; preds = %20, %39, %44, %30, %11
  call void @llvm.lifetime.end.p0i8(i64 4, i8* nonnull %2) #3
  ret i32 0
}

; Function Attrs: argmemonly mustprogress nofree nosync nounwind willreturn
declare void @llvm.lifetime.start.p0i8(i64 immarg, i8* nocapture) #1

; Function Attrs: nofree nounwind
declare noundef i32 @__isoc99_scanf(i8* nocapture noundef readonly, ...) local_unnamed_addr #2

; Function Attrs: nofree nounwind
declare noundef i32 @printf(i8* nocapture noundef readonly, ...) local_unnamed_addr #2

; Function Attrs: argmemonly mustprogress nofree nosync nounwind willreturn
declare void @llvm.lifetime.end.p0i8(i64 immarg, i8* nocapture) #1


!llvm.module.flags = !{!0, !1, !2, !3}
!llvm.ident = !{!4}

!0 = !{i32 1, !"wchar_size", i32 4}
!1 = !{i32 7, !"PIC Level", i32 2}
!2 = !{i32 7, !"PIE Level", i32 2}
!3 = !{i32 7, !"uwtable", i32 1}
!4 = !{!"clang version 13.0.0"}
!5 = !{!6, !6, i64 0}
!6 = !{!"int", !7, i64 0}
!7 = !{!"omnipotent char", !8, i64 0}
!8 = !{!"Simple C/C++ TBAA"}
